; Function Attrs: mustprogress uwtable
define internal void @_ZN12_GLOBAL__N_118ProviderArgDestroyEPv(ptr noundef %p) #5 {
entry:
  %refs_.i = getelementptr inbounds i8, ptr %p, i64 8
  %0 = atomicrmw add ptr %refs_.i, i64 -4294967295 acq_rel, align 8
  %shr.i.mask.i = and i64 %0, -4294967296
  %cmp.i = icmp eq i64 %shr.i.mask.i, 4294967296
  br i1 %cmp.i, label %if.then.i, label %if.end.i

if.then.i:                                        ; preds = %entry
  %vtable.i = load ptr, ptr %p, align 8
  %1 = load ptr, ptr %vtable.i, align 8
  tail call void %1(ptr noundef nonnull align 8 dereferenceable(8) %p)
  br label %if.end.i

if.end.i:                                         ; preds = %if.then.i, %entry
  %2 = atomicrmw sub ptr %refs_.i, i64 1 acq_rel, align 8
  %cmp.not.i.i = icmp eq i64 %2, 1
  br i1 %cmp.not.i.i, label %delete.notnull.i.i, label %_ZN9grpc_core14DualRefCountedI34grpc_authorization_policy_providerE5UnrefEv.exit

delete.notnull.i.i:                               ; preds = %if.end.i
  %vtable.i.i = load ptr, ptr %p, align 8
  %vfn.i.i = getelementptr inbounds i8, ptr %vtable.i.i, i64 16
  %3 = load ptr, ptr %vfn.i.i, align 8
  tail call void %3(ptr noundef nonnull align 8 dereferenceable(16) %p) #8
  br label %_ZN9grpc_core14DualRefCountedI34grpc_authorization_policy_providerE5UnrefEv.exit

_ZN9grpc_core14DualRefCountedI34grpc_authorization_policy_providerE5UnrefEv.exit: ; preds = %if.end.i, %delete.notnull.i.i
  ret void
}